target datalayout = "e-m:e-p270:32:32-p271:32:32-p272:64:64-i64:64-i128:128-f80:128-n8:16:32:64-S128"
target triple = "x86_64-pc-linux-gnu"

@.str.14 = private unnamed_addr constant [29 x i8] c"../openssl/test/sslapitest.c\00", align 1
@.str.218 = private unnamed_addr constant [2 x i8] c"0\00", align 1
@.str.223 = private unnamed_addr constant [2 x i8] c"1\00", align 1
@.str.255 = private unnamed_addr constant [39 x i8] c"SSL_verify_client_post_handshake(sssl)\00", align 1
@.str.256 = private unnamed_addr constant [23 x i8] c"SSL_do_handshake(sssl)\00", align 1
@.str.257 = private unnamed_addr constant [24 x i8] c"SSL_read(cssl, NULL, 0)\00", align 1
@.str.258 = private unnamed_addr constant [24 x i8] c"SSL_read(sssl, NULL, 0)\00", align 1
@.str.259 = private unnamed_addr constant [50 x i8] c"create_ssl_connection(sssl, cssl, SSL_ERROR_NONE)\00", align 1

; Function Attrs: nounwind uwtable
define internal i32 @post_handshake_verify(ptr noundef %0, ptr noundef %1) #0 {
  %3 = alloca i32, align 4
  %4 = alloca ptr, align 8
  %5 = alloca ptr, align 8
  store ptr %0, ptr %4, align 8, !tbaa !21
  store ptr %1, ptr %5, align 8, !tbaa !21
  %6 = load ptr, ptr %4, align 8, !tbaa !21
  call void @SSL_set_verify(ptr noundef %6, i32 noundef 1, ptr noundef null)
  %7 = load ptr, ptr %4, align 8, !tbaa !21
  %8 = call i32 @SSL_verify_client_post_handshake(ptr noundef %7)
  %9 = icmp ne i32 %8, 0
  %10 = zext i1 %9 to i32
  %11 = call i32 @test_true(ptr noundef @.str.14, i32 noundef 2455, ptr noundef @.str.255, i32 noundef %10)
  %12 = icmp ne i32 %11, 0
  br i1 %12, label %14, label %13

13:                                               ; preds = %2
  store i32 0, ptr %3, align 4
  br label %39

14:                                               ; preds = %2
  %15 = load ptr, ptr %4, align 8, !tbaa !21
  %16 = call i32 @SSL_do_handshake(ptr noundef %15)
  %17 = call i32 @test_int_eq(ptr noundef @.str.14, i32 noundef 2459, ptr noundef @.str.256, ptr noundef @.str.223, i32 noundef %16, i32 noundef 1)
  %18 = icmp ne i32 %17, 0
  br i1 %18, label %19, label %37

19:                                               ; preds = %14
  %20 = load ptr, ptr %5, align 8, !tbaa !21
  %21 = call i32 @SSL_read(ptr noundef %20, ptr noundef null, i32 noundef 0)
  %22 = call i32 @test_int_le(ptr noundef @.str.14, i32 noundef 2460, ptr noundef @.str.257, ptr noundef @.str.218, i32 noundef %21, i32 noundef 0)
  %23 = icmp ne i32 %22, 0
  br i1 %23, label %24, label %37

24:                                               ; preds = %19
  %25 = load ptr, ptr %4, align 8, !tbaa !21
  %26 = call i32 @SSL_read(ptr noundef %25, ptr noundef null, i32 noundef 0)
  %27 = call i32 @test_int_le(ptr noundef @.str.14, i32 noundef 2461, ptr noundef @.str.258, ptr noundef @.str.218, i32 noundef %26, i32 noundef 0)
  %28 = icmp ne i32 %27, 0
  br i1 %28, label %29, label %37

29:                                               ; preds = %24
  %30 = load ptr, ptr %4, align 8, !tbaa !21
  %31 = load ptr, ptr %5, align 8, !tbaa !21
  %32 = call i32 @create_ssl_connection(ptr noundef %30, ptr noundef %31, i32 noundef 0)
  %33 = icmp ne i32 %32, 0
  %34 = zext i1 %33 to i32
  %35 = call i32 @test_true(ptr noundef @.str.14, i32 noundef 2463, ptr noundef @.str.259, i32 noundef %34)
  %36 = icmp ne i32 %35, 0
  br i1 %36, label %38, label %37

37:                                               ; preds = %29, %24, %19, %14
  store i32 0, ptr %3, align 4
  br label %39

38:                                               ; preds = %29
  store i32 1, ptr %3, align 4
  br label %39

39:                                               ; preds = %38, %37, %13
  %40 = load i32, ptr %3, align 4
  ret i32 %40
}