; Function Attrs: nounwind uwtable
define internal fastcc range(i32 0, 2) i32 @post_handshake_verify(ptr noundef %0, ptr noundef %1) unnamed_addr #1 {
  tail call void @SSL_set_verify(ptr noundef %0, i32 noundef 1, ptr noundef null) #24
  %3 = tail call i32 @SSL_verify_client_post_handshake(ptr noundef %0) #24
  %4 = icmp ne i32 %3, 0
  %5 = zext i1 %4 to i32
  %6 = tail call i32 @test_true(ptr noundef nonnull @.str.14, i32 noundef 2455, ptr noundef nonnull @.str.255, i32 noundef %5) #24
  %.not = icmp eq i32 %6, 0
  br i1 %.not, label %21, label %7

7:                                                ; preds = %2
  %8 = tail call i32 @SSL_do_handshake(ptr noundef %0) #24
  %9 = tail call i32 @test_int_eq(ptr noundef nonnull @.str.14, i32 noundef 2459, ptr noundef nonnull @.str.256, ptr noundef nonnull @.str.223, i32 noundef %8, i32 noundef 1) #24
  %.not7 = icmp eq i32 %9, 0
  br i1 %.not7, label %21, label %10

10:                                               ; preds = %7
  %11 = tail call i32 @SSL_read(ptr noundef %1, ptr noundef null, i32 noundef 0) #24
  %12 = tail call i32 @test_int_le(ptr noundef nonnull @.str.14, i32 noundef 2460, ptr noundef nonnull @.str.257, ptr noundef nonnull @.str.218, i32 noundef %11, i32 noundef 0) #24
  %.not8 = icmp eq i32 %12, 0
  br i1 %.not8, label %21, label %13

13:                                               ; preds = %10
  %14 = tail call i32 @SSL_read(ptr noundef %0, ptr noundef null, i32 noundef 0) #24
  %15 = tail call i32 @test_int_le(ptr noundef nonnull @.str.14, i32 noundef 2461, ptr noundef nonnull @.str.258, ptr noundef nonnull @.str.218, i32 noundef %14, i32 noundef 0) #24
  %.not9 = icmp eq i32 %15, 0
  br i1 %.not9, label %21, label %16

16:                                               ; preds = %13
  %17 = tail call i32 @create_ssl_connection(ptr noundef %0, ptr noundef %1, i32 noundef 0) #24
  %18 = icmp ne i32 %17, 0
  %19 = zext i1 %18 to i32
  %20 = tail call i32 @test_true(ptr noundef nonnull @.str.14, i32 noundef 2463, ptr noundef nonnull @.str.259, i32 noundef %19) #24
  %.not10 = icmp ne i32 %20, 0
  %spec.select = zext i1 %.not10 to i32
  br label %21

21:                                               ; preds = %16, %7, %10, %13, %2
  %.0 = phi i32 [ 0, %2 ], [ 0, %13 ], [ 0, %10 ], [ 0, %7 ], [ %spec.select, %16 ]
  ret i32 %.0
}